target datalayout = "e-m:e-p270:32:32-p271:32:32-p272:64:64-i64:64-i128:128-f80:128-n8:16:32:64-S128"
target triple = "x86_64-pc-linux-gnu"

%class.cmCTestTestMeasurementXMLParser = type { %class.cmXMLParser, %"class.std::__cxx11::basic_string", %"class.std::__cxx11::basic_string", %"class.std::__cxx11::basic_string", %"class.std::__cxx11::basic_string" }
%class.cmXMLParser = type { ptr, i32, ptr, ptr, ptr }
%"class.std::__cxx11::basic_string" = type { %"struct.std::__cxx11::basic_string<char>::_Alloc_hider", i64, %union.anon }
%"struct.std::__cxx11::basic_string<char>::_Alloc_hider" = type { ptr }
%union.anon = type { i64, [8 x i8] }

$_ZN31cmCTestTestMeasurementXMLParserD2Ev = comdat any

$_ZN31cmCTestTestMeasurementXMLParserD0Ev = comdat any

$_ZN31cmCTestTestMeasurementXMLParser10EndElementERKNSt7__cxx1112basic_stringIcSt11char_traitsIcESaIcEEE = comdat any

@.str = private unnamed_addr constant [5 x i8] c"name\00", align 1
@.str.1 = private unnamed_addr constant [5 x i8] c"type\00", align 1
@_ZTV31cmCTestTestMeasurementXMLParser = dso_local unnamed_addr constant { [16 x ptr] } { [16 x ptr] [ptr null, ptr @_ZTI31cmCTestTestMeasurementXMLParser, ptr @_ZN31cmCTestTestMeasurementXMLParserD2Ev, ptr @_ZN31cmCTestTestMeasurementXMLParserD0Ev, ptr @_ZN11cmXMLParser5ParseEPKc, ptr @_ZN11cmXMLParser9ParseFileEPKc, ptr @_ZN11cmXMLParser16InitializeParserEv, ptr @_ZN11cmXMLParser10ParseChunkEPKcm, ptr @_ZN11cmXMLParser13CleanupParserEv, ptr @_ZN11cmXMLParser15ParsingCompleteEv, ptr @_ZN31cmCTestTestMeasurementXMLParser12StartElementERKNSt7__cxx1112basic_stringIcSt11char_traitsIcESaIcEEEPPKc, ptr @_ZN31cmCTestTestMeasurementXMLParser10EndElementERKNSt7__cxx1112basic_stringIcSt11char_traitsIcESaIcEEE, ptr @_ZN31cmCTestTestMeasurementXMLParser20CharacterDataHandlerEPKci, ptr @_ZN11cmXMLParser19ReportXmlParseErrorEv, ptr @_ZN11cmXMLParser11ReportErrorEiiPKc, ptr @_ZN11cmXMLParser11ParseBufferEPKcm] }, align 8
@_ZTVN10__cxxabiv120__si_class_type_infoE = external global [0 x ptr]
@_ZTS31cmCTestTestMeasurementXMLParser = dso_local constant [34 x i8] c"31cmCTestTestMeasurementXMLParser\00", align 1
@_ZTI11cmXMLParser = external constant ptr
@_ZTI31cmCTestTestMeasurementXMLParser = dso_local constant { ptr, ptr, ptr } { ptr getelementptr inbounds (ptr, ptr @_ZTVN10__cxxabiv120__si_class_type_infoE, i64 2), ptr @_ZTS31cmCTestTestMeasurementXMLParser, ptr @_ZTI11cmXMLParser }, align 8

; Function Attrs: mustprogress uwtable
define dso_local void @_ZN31cmCTestTestMeasurementXMLParser12StartElementERKNSt7__cxx1112basic_stringIcSt11char_traitsIcESaIcEEEPPKc(ptr noundef nonnull align 8 dereferenceable(168) %0, ptr noundef nonnull align 8 dereferenceable(32) %1, ptr noundef %2) unnamed_addr #0 align 2 {
  %4 = alloca ptr, align 8
  %5 = alloca ptr, align 8
  %6 = alloca ptr, align 8
  %7 = alloca ptr, align 8
  store ptr %0, ptr %4, align 8
  store ptr %1, ptr %5, align 8
  store ptr %2, ptr %6, align 8
  %8 = load ptr, ptr %4, align 8
  %9 = getelementptr inbounds %class.cmCTestTestMeasurementXMLParser, ptr %8, i32 0, i32 1
  call void @_ZNSt7__cxx1112basic_stringIcSt11char_traitsIcESaIcEE5clearEv(ptr noundef nonnull align 8 dereferenceable(32) %9) #6
  %10 = load ptr, ptr %5, align 8
  %11 = getelementptr inbounds %class.cmCTestTestMeasurementXMLParser, ptr %8, i32 0, i32 2
  %12 = call noundef nonnull align 8 dereferenceable(32) ptr @_ZNSt7__cxx1112basic_stringIcSt11char_traitsIcESaIcEEaSERKS4_(ptr noundef nonnull align 8 dereferenceable(32) %11, ptr noundef nonnull align 8 dereferenceable(32) %10)
  %13 = load ptr, ptr %6, align 8
  store ptr %13, ptr %7, align 8
  br label %14

14:                                               ; preds = %44, %3
  %15 = load ptr, ptr %7, align 8
  %16 = load ptr, ptr %15, align 8
  %17 = icmp ne ptr %16, null
  br i1 %17, label %18, label %47

18:                                               ; preds = %14
  %19 = load ptr, ptr %7, align 8
  %20 = getelementptr inbounds ptr, ptr %19, i64 0
  %21 = load ptr, ptr %20, align 8
  %22 = call i32 @strcmp(ptr noundef %21, ptr noundef @.str) #7
  %23 = icmp eq i32 %22, 0
  br i1 %23, label %24, label %30

24:                                               ; preds = %18
  %25 = load ptr, ptr %7, align 8
  %26 = getelementptr inbounds ptr, ptr %25, i64 1
  %27 = load ptr, ptr %26, align 8
  %28 = getelementptr inbounds %class.cmCTestTestMeasurementXMLParser, ptr %8, i32 0, i32 3
  %29 = call noundef nonnull align 8 dereferenceable(32) ptr @_ZNSt7__cxx1112basic_stringIcSt11char_traitsIcESaIcEEaSEPKc(ptr noundef nonnull align 8 dereferenceable(32) %28, ptr noundef %27)
  br label %43

30:                                               ; preds = %18
  %31 = load ptr, ptr %7, align 8
  %32 = getelementptr inbounds ptr, ptr %31, i64 0
  %33 = load ptr, ptr %32, align 8
  %34 = call i32 @strcmp(ptr noundef %33, ptr noundef @.str.1) #7
  %35 = icmp eq i32 %34, 0
  br i1 %35, label %36, label %42

36:                                               ; preds = %30
  %37 = load ptr, ptr %7, align 8
  %38 = getelementptr inbounds ptr, ptr %37, i64 1
  %39 = load ptr, ptr %38, align 8
  %40 = getelementptr inbounds %class.cmCTestTestMeasurementXMLParser, ptr %8, i32 0, i32 4
  %41 = call noundef nonnull align 8 dereferenceable(32) ptr @_ZNSt7__cxx1112basic_stringIcSt11char_traitsIcESaIcEEaSEPKc(ptr noundef nonnull align 8 dereferenceable(32) %40, ptr noundef %39)
  br label %42

42:                                               ; preds = %36, %30
  br label %43

43:                                               ; preds = %42, %24
  br label %44

44:                                               ; preds = %43
  %45 = load ptr, ptr %7, align 8
  %46 = getelementptr inbounds ptr, ptr %45, i64 2
  store ptr %46, ptr %7, align 8
  br label %14, !llvm.loop !5

47:                                               ; preds = %14
  ret void
}

; Function Attrs: nounwind
declare void @_ZNSt7__cxx1112basic_stringIcSt11char_traitsIcESaIcEE5clearEv(ptr noundef nonnull align 8 dereferenceable(32)) #1

declare noundef nonnull align 8 dereferenceable(32) ptr @_ZNSt7__cxx1112basic_stringIcSt11char_traitsIcESaIcEEaSERKS4_(ptr noundef nonnull align 8 dereferenceable(32), ptr noundef nonnull align 8 dereferenceable(32)) #2

; Function Attrs: nounwind willreturn memory(read)
declare i32 @strcmp(ptr noundef, ptr noundef) #3

declare noundef nonnull align 8 dereferenceable(32) ptr @_ZNSt7__cxx1112basic_stringIcSt11char_traitsIcESaIcEEaSEPKc(ptr noundef nonnull align 8 dereferenceable(32), ptr noundef) #2

; Function Attrs: mustprogress uwtable
define dso_local void @_ZN31cmCTestTestMeasurementXMLParser20CharacterDataHandlerEPKci(ptr noundef nonnull align 8 dereferenceable(168) %0, ptr noundef %1, i32 noundef %2) unnamed_addr #0 align 2 {
  %4 = alloca ptr, align 8
  %5 = alloca ptr, align 8
  %6 = alloca i32, align 4
  store ptr %0, ptr %4, align 8
  store ptr %1, ptr %5, align 8
  store i32 %2, ptr %6, align 4
  %7 = load ptr, ptr %4, align 8
  %8 = getelementptr inbounds %class.cmCTestTestMeasurementXMLParser, ptr %7, i32 0, i32 1
  %9 = load ptr, ptr %5, align 8
  %10 = load i32, ptr %6, align 4
  %11 = sext i32 %10 to i64
  %12 = call noundef nonnull align 8 dereferenceable(32) ptr @_ZNSt7__cxx1112basic_stringIcSt11char_traitsIcESaIcEE6appendEPKcm(ptr noundef nonnull align 8 dereferenceable(32) %8, ptr noundef %9, i64 noundef %11)
  ret void
}

declare noundef nonnull align 8 dereferenceable(32) ptr @_ZNSt7__cxx1112basic_stringIcSt11char_traitsIcESaIcEE6appendEPKcm(ptr noundef nonnull align 8 dereferenceable(32), ptr noundef, i64 noundef) #2

; Function Attrs: mustprogress nounwind uwtable
define linkonce_odr dso_local void @_ZN31cmCTestTestMeasurementXMLParserD2Ev(ptr noundef nonnull align 8 dereferenceable(168) %0) unnamed_addr #4 comdat align 2 {
  %2 = alloca ptr, align 8
  store ptr %0, ptr %2, align 8
  %3 = load ptr, ptr %2, align 8
  store ptr getelementptr inbounds ({ [16 x ptr] }, ptr @_ZTV31cmCTestTestMeasurementXMLParser, i32 0, i32 0, i32 2), ptr %3, align 8
  %4 = getelementptr inbounds %class.cmCTestTestMeasurementXMLParser, ptr %3, i32 0, i32 4
  call void @_ZNSt7__cxx1112basic_stringIcSt11char_traitsIcESaIcEED1Ev(ptr noundef nonnull align 8 dereferenceable(32) %4) #6
  %5 = getelementptr inbounds %class.cmCTestTestMeasurementXMLParser, ptr %3, i32 0, i32 3
  call void @_ZNSt7__cxx1112basic_stringIcSt11char_traitsIcESaIcEED1Ev(ptr noundef nonnull align 8 dereferenceable(32) %5) #6
  %6 = getelementptr inbounds %class.cmCTestTestMeasurementXMLParser, ptr %3, i32 0, i32 2
  call void @_ZNSt7__cxx1112basic_stringIcSt11char_traitsIcESaIcEED1Ev(ptr noundef nonnull align 8 dereferenceable(32) %6) #6
  %7 = getelementptr inbounds %class.cmCTestTestMeasurementXMLParser, ptr %3, i32 0, i32 1
  call void @_ZNSt7__cxx1112basic_stringIcSt11char_traitsIcESaIcEED1Ev(ptr noundef nonnull align 8 dereferenceable(32) %7) #6
  call void @_ZN11cmXMLParserD2Ev(ptr noundef nonnull align 8 dereferenceable(40) %3) #6
  ret void
}

; Function Attrs: mustprogress nounwind uwtable
define linkonce_odr dso_local void @_ZN31cmCTestTestMeasurementXMLParserD0Ev(ptr noundef nonnull align 8 dereferenceable(168) %0) unnamed_addr #4 comdat align 2 {
  %2 = alloca ptr, align 8
  store ptr %0, ptr %2, align 8
  %3 = load ptr, ptr %2, align 8
  call void @_ZN31cmCTestTestMeasurementXMLParserD2Ev(ptr noundef nonnull align 8 dereferenceable(168) %3) #6
  call void @_ZdlPv(ptr noundef %3) #8
  ret void
}

declare noundef i32 @_ZN11cmXMLParser5ParseEPKc(ptr noundef nonnull align 8 dereferenceable(40), ptr noundef) unnamed_addr #2

declare noundef i32 @_ZN11cmXMLParser9ParseFileEPKc(ptr noundef nonnull align 8 dereferenceable(40), ptr noundef) unnamed_addr #2

declare noundef i32 @_ZN11cmXMLParser16InitializeParserEv(ptr noundef nonnull align 8 dereferenceable(40)) unnamed_addr #2

declare noundef i32 @_ZN11cmXMLParser10ParseChunkEPKcm(ptr noundef nonnull align 8 dereferenceable(40), ptr noundef, i64 noundef) unnamed_addr #2

declare noundef i32 @_ZN11cmXMLParser13CleanupParserEv(ptr noundef nonnull align 8 dereferenceable(40)) unnamed_addr #2

declare noundef i32 @_ZN11cmXMLParser15ParsingCompleteEv(ptr noundef nonnull align 8 dereferenceable(40)) unnamed_addr #2

; Function Attrs: mustprogress nounwind uwtable
define linkonce_odr dso_local void @_ZN31cmCTestTestMeasurementXMLParser10EndElementERKNSt7__cxx1112basic_stringIcSt11char_traitsIcESaIcEEE(ptr noundef nonnull align 8 dereferenceable(168) %0, ptr noundef nonnull align 8 dereferenceable(32) %1) unnamed_addr #4 comdat align 2 {
  %3 = alloca ptr, align 8
  %4 = alloca ptr, align 8
  store ptr %0, ptr %3, align 8
  store ptr %1, ptr %4, align 8
  ret void
}

declare void @_ZN11cmXMLParser19ReportXmlParseErrorEv(ptr noundef nonnull align 8 dereferenceable(40)) unnamed_addr #2

declare void @_ZN11cmXMLParser11ReportErrorEiiPKc(ptr noundef nonnull align 8 dereferenceable(40), i32 noundef, i32 noundef, ptr noundef) unnamed_addr #2

declare noundef i32 @_ZN11cmXMLParser11ParseBufferEPKcm(ptr noundef nonnull align 8 dereferenceable(40), ptr noundef, i64 noundef) unnamed_addr #2

; Function Attrs: nounwind
declare void @_ZNSt7__cxx1112basic_stringIcSt11char_traitsIcESaIcEED1Ev(ptr noundef nonnull align 8 dereferenceable(32)) unnamed_addr #1

; Function Attrs: nounwind
declare void @_ZN11cmXMLParserD2Ev(ptr noundef nonnull align 8 dereferenceable(40)) unnamed_addr #1

; Function Attrs: nobuiltin nounwind
declare void @_ZdlPv(ptr noundef) #5


!llvm.module.flags = !{!0, !1, !2, !3, !4}

!0 = !{i32 1, !"wchar_size", i32 4}
!1 = !{i32 8, !"PIC Level", i32 2}
!2 = !{i32 7, !"PIE Level", i32 2}
!3 = !{i32 7, !"uwtable", i32 2}
!4 = !{i32 7, !"frame-pointer", i32 2}
!5 = distinct !{!5, !6}
!6 = !{!"llvm.loop.mustprogress"}
