; ModuleID = 'bench/cmake/original/cmCTestTestMeasurementXMLParser.cxx.ll'
source_filename = "bench/cmake/original/cmCTestTestMeasurementXMLParser.cxx.ll"
target datalayout = "e-m:e-p270:32:32-p271:32:32-p272:64:64-i64:64-i128:128-f80:128-n8:16:32:64-S128"
target triple = "x86_64-pc-linux-gnu"

$_ZN31cmCTestTestMeasurementXMLParserD2Ev = comdat any

$_ZN31cmCTestTestMeasurementXMLParserD0Ev = comdat any

$_ZN31cmCTestTestMeasurementXMLParser10EndElementERKNSt7__cxx1112basic_stringIcSt11char_traitsIcESaIcEEE = comdat any

@.str = private unnamed_addr constant [5 x i8] c"name\00", align 1
@.str.1 = private unnamed_addr constant [5 x i8] c"type\00", align 1
@_ZTV31cmCTestTestMeasurementXMLParser = dso_local unnamed_addr constant { [16 x ptr] } { [16 x ptr] [ptr null, ptr @_ZTI31cmCTestTestMeasurementXMLParser, ptr @_ZN31cmCTestTestMeasurementXMLParserD2Ev, ptr @_ZN31cmCTestTestMeasurementXMLParserD0Ev, ptr @_ZN11cmXMLParser5ParseEPKc, ptr @_ZN11cmXMLParser9ParseFileEPKc, ptr @_ZN11cmXMLParser16InitializeParserEv, ptr @_ZN11cmXMLParser10ParseChunkEPKcm, ptr @_ZN11cmXMLParser13CleanupParserEv, ptr @_ZN11cmXMLParser15ParsingCompleteEv, ptr @_ZN31cmCTestTestMeasurementXMLParser12StartElementERKNSt7__cxx1112basic_stringIcSt11char_traitsIcESaIcEEEPPKc, ptr @_ZN31cmCTestTestMeasurementXMLParser10EndElementERKNSt7__cxx1112basic_stringIcSt11char_traitsIcESaIcEEE, ptr @_ZN31cmCTestTestMeasurementXMLParser20CharacterDataHandlerEPKci, ptr @_ZN11cmXMLParser19ReportXmlParseErrorEv, ptr @_ZN11cmXMLParser11ReportErrorEiiPKc, ptr @_ZN11cmXMLParser11ParseBufferEPKcm] }, align 8
@_ZTVN10__cxxabiv120__si_class_type_infoE = external global [0 x ptr]
@_ZTS31cmCTestTestMeasurementXMLParser = dso_local constant [34 x i8] c"31cmCTestTestMeasurementXMLParser\00", align 1
@_ZTI11cmXMLParser = external constant ptr
@_ZTI31cmCTestTestMeasurementXMLParser = dso_local constant { ptr, ptr, ptr } { ptr getelementptr inbounds (ptr, ptr @_ZTVN10__cxxabiv120__si_class_type_infoE, i64 2), ptr @_ZTS31cmCTestTestMeasurementXMLParser, ptr @_ZTI11cmXMLParser }, align 8

; Function Attrs: mustprogress uwtable
define dso_local void @_ZN31cmCTestTestMeasurementXMLParser12StartElementERKNSt7__cxx1112basic_stringIcSt11char_traitsIcESaIcEEEPPKc(ptr noundef nonnull align 8 dereferenceable(168) %0, ptr noundef nonnull align 8 dereferenceable(32) %1, ptr nocapture noundef readonly %2) unnamed_addr #0 align 2 {
  %4 = getelementptr inbounds i8, ptr %0, i64 40
  tail call void @_ZNSt7__cxx1112basic_stringIcSt11char_traitsIcESaIcEE5clearEv(ptr noundef nonnull align 8 dereferenceable(32) %4) #6
  %5 = getelementptr inbounds i8, ptr %0, i64 72
  %6 = tail call noundef nonnull align 8 dereferenceable(32) ptr @_ZNSt7__cxx1112basic_stringIcSt11char_traitsIcESaIcEEaSERKS4_(ptr noundef nonnull align 8 dereferenceable(32) %5, ptr noundef nonnull align 8 dereferenceable(32) %1)
  %7 = load ptr, ptr %2, align 8
  %.not10 = icmp eq ptr %7, null
  br i1 %.not10, label %._crit_edge, label %.lr.ph

.lr.ph:                                           ; preds = %3
  %8 = getelementptr inbounds i8, ptr %0, i64 136
  %9 = getelementptr inbounds i8, ptr %0, i64 104
  br label %10

10:                                               ; preds = %.lr.ph, %20
  %11 = phi ptr [ %7, %.lr.ph ], [ %22, %20 ]
  %.011 = phi ptr [ %2, %.lr.ph ], [ %21, %20 ]
  %12 = tail call i32 @strcmp(ptr noundef nonnull dereferenceable(1) %11, ptr noundef nonnull dereferenceable(5) @.str) #7
  %13 = icmp eq i32 %12, 0
  br i1 %13, label %.sink.split, label %14

14:                                               ; preds = %10
  %15 = tail call i32 @strcmp(ptr noundef nonnull dereferenceable(1) %11, ptr noundef nonnull dereferenceable(5) @.str.1) #7
  %16 = icmp eq i32 %15, 0
  br i1 %16, label %.sink.split, label %20

.sink.split:                                      ; preds = %14, %10
  %.sink = phi ptr [ %9, %10 ], [ %8, %14 ]
  %17 = getelementptr inbounds i8, ptr %.011, i64 8
  %18 = load ptr, ptr %17, align 8
  %19 = tail call noundef nonnull align 8 dereferenceable(32) ptr @_ZNSt7__cxx1112basic_stringIcSt11char_traitsIcESaIcEEaSEPKc(ptr noundef nonnull align 8 dereferenceable(32) %.sink, ptr noundef %18)
  br label %20

20:                                               ; preds = %.sink.split, %14
  %21 = getelementptr inbounds i8, ptr %.011, i64 16
  %22 = load ptr, ptr %21, align 8
  %.not = icmp eq ptr %22, null
  br i1 %.not, label %._crit_edge, label %10, !llvm.loop !5

._crit_edge:                                      ; preds = %20, %3
  ret void
}

; Function Attrs: nounwind
declare void @_ZNSt7__cxx1112basic_stringIcSt11char_traitsIcESaIcEE5clearEv(ptr noundef nonnull align 8 dereferenceable(32)) local_unnamed_addr #1

declare noundef nonnull align 8 dereferenceable(32) ptr @_ZNSt7__cxx1112basic_stringIcSt11char_traitsIcESaIcEEaSERKS4_(ptr noundef nonnull align 8 dereferenceable(32), ptr noundef nonnull align 8 dereferenceable(32)) local_unnamed_addr #2

; Function Attrs: mustprogress nofree nounwind willreturn memory(argmem: read)
declare i32 @strcmp(ptr nocapture noundef, ptr nocapture noundef) local_unnamed_addr #3

declare noundef nonnull align 8 dereferenceable(32) ptr @_ZNSt7__cxx1112basic_stringIcSt11char_traitsIcESaIcEEaSEPKc(ptr noundef nonnull align 8 dereferenceable(32), ptr noundef) local_unnamed_addr #2

; Function Attrs: mustprogress uwtable
define dso_local void @_ZN31cmCTestTestMeasurementXMLParser20CharacterDataHandlerEPKci(ptr noundef nonnull align 8 dereferenceable(168) %0, ptr noundef %1, i32 noundef %2) unnamed_addr #0 align 2 {
  %4 = getelementptr inbounds i8, ptr %0, i64 40
  %5 = sext i32 %2 to i64
  %6 = tail call noundef nonnull align 8 dereferenceable(32) ptr @_ZNSt7__cxx1112basic_stringIcSt11char_traitsIcESaIcEE6appendEPKcm(ptr noundef nonnull align 8 dereferenceable(32) %4, ptr noundef %1, i64 noundef %5)
  ret void
}

declare noundef nonnull align 8 dereferenceable(32) ptr @_ZNSt7__cxx1112basic_stringIcSt11char_traitsIcESaIcEE6appendEPKcm(ptr noundef nonnull align 8 dereferenceable(32), ptr noundef, i64 noundef) local_unnamed_addr #2

; Function Attrs: mustprogress nounwind uwtable
define linkonce_odr dso_local void @_ZN31cmCTestTestMeasurementXMLParserD2Ev(ptr noundef nonnull align 8 dereferenceable(168) %0) unnamed_addr #4 comdat align 2 {
  store ptr getelementptr inbounds ({ [16 x ptr] }, ptr @_ZTV31cmCTestTestMeasurementXMLParser, i64 0, i32 0, i64 2), ptr %0, align 8
  %2 = getelementptr inbounds i8, ptr %0, i64 136
  tail call void @_ZNSt7__cxx1112basic_stringIcSt11char_traitsIcESaIcEED1Ev(ptr noundef nonnull align 8 dereferenceable(32) %2) #6
  %3 = getelementptr inbounds i8, ptr %0, i64 104
  tail call void @_ZNSt7__cxx1112basic_stringIcSt11char_traitsIcESaIcEED1Ev(ptr noundef nonnull align 8 dereferenceable(32) %3) #6
  %4 = getelementptr inbounds i8, ptr %0, i64 72
  tail call void @_ZNSt7__cxx1112basic_stringIcSt11char_traitsIcESaIcEED1Ev(ptr noundef nonnull align 8 dereferenceable(32) %4) #6
  %5 = getelementptr inbounds i8, ptr %0, i64 40
  tail call void @_ZNSt7__cxx1112basic_stringIcSt11char_traitsIcESaIcEED1Ev(ptr noundef nonnull align 8 dereferenceable(32) %5) #6
  tail call void @_ZN11cmXMLParserD2Ev(ptr noundef nonnull align 8 dereferenceable(40) %0) #6
  ret void
}

; Function Attrs: mustprogress nounwind uwtable
define linkonce_odr dso_local void @_ZN31cmCTestTestMeasurementXMLParserD0Ev(ptr noundef nonnull align 8 dereferenceable(168) %0) unnamed_addr #4 comdat align 2 {
  store ptr getelementptr inbounds ({ [16 x ptr] }, ptr @_ZTV31cmCTestTestMeasurementXMLParser, i64 0, i32 0, i64 2), ptr %0, align 8
  %2 = getelementptr inbounds i8, ptr %0, i64 136
  tail call void @_ZNSt7__cxx1112basic_stringIcSt11char_traitsIcESaIcEED1Ev(ptr noundef nonnull align 8 dereferenceable(32) %2) #6
  %3 = getelementptr inbounds i8, ptr %0, i64 104
  tail call void @_ZNSt7__cxx1112basic_stringIcSt11char_traitsIcESaIcEED1Ev(ptr noundef nonnull align 8 dereferenceable(32) %3) #6
  %4 = getelementptr inbounds i8, ptr %0, i64 72
  tail call void @_ZNSt7__cxx1112basic_stringIcSt11char_traitsIcESaIcEED1Ev(ptr noundef nonnull align 8 dereferenceable(32) %4) #6
  %5 = getelementptr inbounds i8, ptr %0, i64 40
  tail call void @_ZNSt7__cxx1112basic_stringIcSt11char_traitsIcESaIcEED1Ev(ptr noundef nonnull align 8 dereferenceable(32) %5) #6
  tail call void @_ZN11cmXMLParserD2Ev(ptr noundef nonnull align 8 dereferenceable(40) %0) #6
  tail call void @_ZdlPv(ptr noundef nonnull %0) #8
  ret void
}

declare noundef i32 @_ZN11cmXMLParser5ParseEPKc(ptr noundef nonnull align 8 dereferenceable(40), ptr noundef) unnamed_addr #2

declare noundef i32 @_ZN11cmXMLParser9ParseFileEPKc(ptr noundef nonnull align 8 dereferenceable(40), ptr noundef) unnamed_addr #2

declare noundef i32 @_ZN11cmXMLParser16InitializeParserEv(ptr noundef nonnull align 8 dereferenceable(40)) unnamed_addr #2

declare noundef i32 @_ZN11cmXMLParser10ParseChunkEPKcm(ptr noundef nonnull align 8 dereferenceable(40), ptr noundef, i64 noundef) unnamed_addr #2

declare noundef i32 @_ZN11cmXMLParser13CleanupParserEv(ptr noundef nonnull align 8 dereferenceable(40)) unnamed_addr #2

declare noundef i32 @_ZN11cmXMLParser15ParsingCompleteEv(ptr noundef nonnull align 8 dereferenceable(40)) unnamed_addr #2

; Function Attrs: mustprogress nounwind uwtable
define linkonce_odr dso_local void @_ZN31cmCTestTestMeasurementXMLParser10EndElementERKNSt7__cxx1112basic_stringIcSt11char_traitsIcESaIcEEE(ptr noundef nonnull align 8 dereferenceable(168) %0, ptr noundef nonnull align 8 dereferenceable(32) %1) unnamed_addr #4 comdat align 2 {
  ret void
}

declare void @_ZN11cmXMLParser19ReportXmlParseErrorEv(ptr noundef nonnull align 8 dereferenceable(40)) unnamed_addr #2

declare void @_ZN11cmXMLParser11ReportErrorEiiPKc(ptr noundef nonnull align 8 dereferenceable(40), i32 noundef, i32 noundef, ptr noundef) unnamed_addr #2

declare noundef i32 @_ZN11cmXMLParser11ParseBufferEPKcm(ptr noundef nonnull align 8 dereferenceable(40), ptr noundef, i64 noundef) unnamed_addr #2

; Function Attrs: nounwind
declare void @_ZNSt7__cxx1112basic_stringIcSt11char_traitsIcESaIcEED1Ev(ptr noundef nonnull align 8 dereferenceable(32)) unnamed_addr #1

; Function Attrs: nounwind
declare void @_ZN11cmXMLParserD2Ev(ptr noundef nonnull align 8 dereferenceable(40)) unnamed_addr #1

; Function Attrs: nobuiltin nounwind
declare void @_ZdlPv(ptr noundef) local_unnamed_addr #5


!llvm.module.flags = !{!0, !1, !2, !3, !4}

!0 = !{i32 1, !"wchar_size", i32 4}
!1 = !{i32 8, !"PIC Level", i32 2}
!2 = !{i32 7, !"PIE Level", i32 2}
!3 = !{i32 7, !"uwtable", i32 2}
!4 = !{i32 7, !"frame-pointer", i32 2}
!5 = distinct !{!5, !6}
!6 = !{!"llvm.loop.mustprogress"}
